; Function Attrs: norecurse nounwind uwtable
define internal void @_ZL10clearRVecsN3gmx8ArrayRefINS_11BasicVectorIfEEEEb.omp_outlined(ptr noalias nocapture noundef readonly %0, ptr noalias nocapture readnone %1, ptr nocapture noundef nonnull readonly align 8 dereferenceable(16) %2) #13 personality ptr @__gxx_personality_v0 {
  %4 = alloca i64, align 8
  %5 = alloca i64, align 8
  %6 = alloca i64, align 8
  %7 = alloca i32, align 4
  %8 = getelementptr inbounds i8, ptr %2, i64 8
  %.sroa.0.0.copyload.i.i = load ptr, ptr %2, align 8
  %9 = load ptr, ptr %8, align 8
  %10 = ptrtoint ptr %9 to i64
  %11 = ptrtoint ptr %.sroa.0.0.copyload.i.i to i64
  %12 = sub i64 %10, %11
  %13 = icmp sgt i64 %12, 0
  br i1 %13, label %14, label %27

14:                                               ; preds = %3
  %15 = udiv exact i64 %12, 12
  %16 = add nsw i64 %15, -1
  store i64 0, ptr %4, align 8
  store i64 %16, ptr %5, align 8
  store i64 1, ptr %6, align 8
  store i32 0, ptr %7, align 4
  %17 = load i32, ptr %0, align 4
  call void @__kmpc_for_static_init_8(ptr nonnull @1, i32 %17, i32 34, ptr nonnull %7, ptr nonnull %4, ptr nonnull %5, ptr nonnull %6, i64 1, i64 1)
  %18 = load i64, ptr %5, align 8
  %19 = call i64 @llvm.smin.i64(i64 %18, i64 %16)
  store i64 %19, ptr %5, align 8
  %20 = load i64, ptr %4, align 8
  %.not11 = icmp sgt i64 %20, %19
  br i1 %.not11, label %._crit_edge, label %.lr.ph

.lr.ph:                                           ; preds = %14, %.lr.ph
  %.012 = phi i64 [ %25, %.lr.ph ], [ %20, %14 ]
  %21 = load i64, ptr %2, align 8
  %22 = inttoptr i64 %21 to ptr
  %23 = getelementptr inbounds %"class.gmx::BasicVector", ptr %22, i64 %.012
  store <2 x float> zeroinitializer, ptr %23, align 4
  %24 = getelementptr inbounds i8, ptr %23, i64 8
  store float 0.000000e+00, ptr %24, align 4
  %25 = add nsw i64 %.012, 1
  %26 = load i64, ptr %5, align 8
  %.not.not = icmp slt i64 %.012, %26
  br i1 %.not.not, label %.lr.ph, label %._crit_edge

._crit_edge:                                      ; preds = %.lr.ph, %14
  call void @__kmpc_for_static_fini(ptr nonnull @1, i32 %17)
  br label %27

27:                                               ; preds = %._crit_edge, %3
  ret void
}